target datalayout = "e-m:e-p270:32:32-p271:32:32-p272:64:64-i64:64-i128:128-f80:128-n8:16:32:64-S128"
target triple = "x86_64-pc-linux-gnu"

@stdout = external global ptr, align 8
@.str.7 = private unnamed_addr constant [2 x i8] c"r\00", align 1
@.str.8 = private unnamed_addr constant [46 x i8] c"Error: Could not open exclude file %s. Stop.\0A\00", align 1
@.str.9 = private unnamed_addr constant [6 x i8] c"%127s\00", align 1

; Function Attrs: inlinehint nounwind uwtable
define internal ptr @Abc_UtilStrsav(ptr noundef %0) #5 {
  %2 = alloca ptr, align 8
  store ptr %0, ptr %2, align 8, !tbaa !3
  %3 = load ptr, ptr %2, align 8, !tbaa !3
  %4 = icmp ne ptr %3, null
  br i1 %4, label %5, label %13

5:                                                ; preds = %1
  %6 = load ptr, ptr %2, align 8, !tbaa !3
  %7 = call i64 @strlen(ptr noundef %6) #11
  %8 = add i64 %7, 1
  %9 = mul i64 1, %8
  %10 = call noalias ptr @malloc(i64 noundef %9) #12
  %11 = load ptr, ptr %2, align 8, !tbaa !3
  %12 = call ptr @strcpy(ptr noundef %10, ptr noundef %11) #10
  br label %14

13:                                               ; preds = %1
  br label %14

14:                                               ; preds = %13, %5
  %15 = phi ptr [ %12, %5 ], [ null, %13 ]
  ret ptr %15
}

; Function Attrs: nounwind uwtable
define i32 @Mio_LibraryReadExclude(ptr noundef %0, ptr noundef %1) #0 {
  %3 = alloca i32, align 4
  %4 = alloca ptr, align 8
  %5 = alloca ptr, align 8
  %6 = alloca i32, align 4
  %7 = alloca ptr, align 8
  %8 = alloca [128 x i8], align 16
  %9 = alloca i32, align 4
  store ptr %0, ptr %4, align 8, !tbaa !3
  store ptr %1, ptr %5, align 8, !tbaa !10
  call void @llvm.lifetime.start.p0(i64 4, ptr %6) #10
  store i32 0, ptr %6, align 4, !tbaa !8
  call void @llvm.lifetime.start.p0(i64 8, ptr %7) #10
  call void @llvm.lifetime.start.p0(i64 128, ptr %8) #10
  %10 = load ptr, ptr %4, align 8, !tbaa !3
  %11 = icmp ne ptr %10, null
  br i1 %11, label %12, label %37

12:                                               ; preds = %2
  %13 = load ptr, ptr %4, align 8, !tbaa !3
  %14 = call noalias ptr @fopen(ptr noundef %13, ptr noundef @.str.7)
  store ptr %14, ptr %7, align 8, !tbaa !12
  %15 = load ptr, ptr %7, align 8, !tbaa !12
  %16 = icmp eq ptr %15, null
  br i1 %16, label %17, label %21

17:                                               ; preds = %12
  %18 = load ptr, ptr @stdout, align 8, !tbaa !12
  %19 = load ptr, ptr %4, align 8, !tbaa !3
  %20 = call i32 (ptr, ptr, ...) @fprintf(ptr noundef %18, ptr noundef @.str.8, ptr noundef %19) #10
  store i32 -1, ptr %3, align 4
  store i32 1, ptr %9, align 4
  br label %39

21:                                               ; preds = %12
  br label %22

22:                                               ; preds = %27, %21
  %23 = load ptr, ptr %7, align 8, !tbaa !12
  %24 = getelementptr inbounds [128 x i8], ptr %8, i64 0, i64 0
  %25 = call i32 (ptr, ptr, ...) @__isoc99_fscanf(ptr noundef %23, ptr noundef @.str.9, ptr noundef %24)
  %26 = icmp eq i32 1, %25
  br i1 %26, label %27, label %34

27:                                               ; preds = %22
  %28 = load ptr, ptr %5, align 8, !tbaa !10
  %29 = getelementptr inbounds [128 x i8], ptr %8, i64 0, i64 0
  %30 = call ptr @Abc_UtilStrsav(ptr noundef %29)
  %31 = call i32 @st__insert(ptr noundef %28, ptr noundef %30, ptr noundef null)
  %32 = load i32, ptr %6, align 4, !tbaa !8
  %33 = add nsw i32 %32, 1
  store i32 %33, ptr %6, align 4, !tbaa !8
  br label %22, !llvm.loop !28

34:                                               ; preds = %22
  %35 = load ptr, ptr %7, align 8, !tbaa !12
  %36 = call i32 @fclose(ptr noundef %35)
  br label %37

37:                                               ; preds = %34, %2
  %38 = load i32, ptr %6, align 4, !tbaa !8
  store i32 %38, ptr %3, align 4
  store i32 1, ptr %9, align 4
  br label %39

39:                                               ; preds = %37, %17
  call void @llvm.lifetime.end.p0(i64 128, ptr %8) #10
  call void @llvm.lifetime.end.p0(i64 8, ptr %7) #10
  call void @llvm.lifetime.end.p0(i64 4, ptr %6) #10
  %40 = load i32, ptr %3, align 4
  ret i32 %40
}