; Function Attrs: nounwind uwtable
define i32 @Mio_LibraryReadExclude(ptr noundef %0, ptr noundef %1) local_unnamed_addr #0 {
  %3 = alloca [128 x i8], align 16
  call void @llvm.lifetime.start.p0(i64 128, ptr nonnull %3) #17
  %.not = icmp eq ptr %0, null
  br i1 %.not, label %21, label %4

4:                                                ; preds = %2
  %5 = tail call noalias ptr @fopen(ptr noundef nonnull %0, ptr noundef nonnull @.str.7)
  %6 = icmp eq ptr %5, null
  br i1 %6, label %9, label %.preheader

.preheader:                                       ; preds = %4
  %7 = call i32 (ptr, ptr, ...) @__isoc99_fscanf(ptr noundef nonnull %5, ptr noundef nonnull @.str.9, ptr noundef nonnull %3) #17
  %8 = icmp eq i32 %7, 1
  br i1 %8, label %.lr.ph, label %._crit_edge

9:                                                ; preds = %4
  %10 = load ptr, ptr @stdout, align 8, !tbaa !3
  %11 = tail call i32 (ptr, ptr, ...) @fprintf(ptr noundef %10, ptr noundef nonnull @.str.8, ptr noundef nonnull %0) #17
  br label %21

.lr.ph:                                           ; preds = %.preheader, %.lr.ph
  %.111 = phi i32 [ %17, %.lr.ph ], [ 0, %.preheader ]
  %12 = call i64 @strlen(ptr noundef nonnull readonly dereferenceable(1) %3) #18
  %13 = add i64 %12, 1
  %14 = call noalias ptr @malloc(i64 noundef %13) #19
  %15 = call ptr @strcpy(ptr noundef nonnull dereferenceable(1) %14, ptr noundef nonnull readonly dereferenceable(1) %3) #17
  %16 = call i32 @st__insert(ptr noundef %1, ptr noundef nonnull %14, ptr noundef null) #17
  %17 = add nuw nsw i32 %.111, 1
  %18 = call i32 (ptr, ptr, ...) @__isoc99_fscanf(ptr noundef nonnull %5, ptr noundef nonnull @.str.9, ptr noundef nonnull %3) #17
  %19 = icmp eq i32 %18, 1
  br i1 %19, label %.lr.ph, label %._crit_edge, !llvm.loop !23

._crit_edge:                                      ; preds = %.lr.ph, %.preheader
  %.1.lcssa = phi i32 [ 0, %.preheader ], [ %17, %.lr.ph ]
  %20 = call i32 @fclose(ptr noundef nonnull %5)
  br label %21

21:                                               ; preds = %2, %._crit_edge, %9
  %.0 = phi i32 [ -1, %9 ], [ %.1.lcssa, %._crit_edge ], [ 0, %2 ]
  call void @llvm.lifetime.end.p0(i64 128, ptr nonnull %3) #17
  ret i32 %.0
}